target datalayout = "e-m:e-p270:32:32-p271:32:32-p272:64:64-i64:64-i128:128-f80:128-n8:16:32:64-S128"
target triple = "x86_64-pc-linux-gnu"

; Function Attrs: mustprogress nounwind uwtable
define linkonce_odr noundef float @_Zli5_reale(x86_fp80 noundef %0) #5 comdat {
  %2 = alloca x86_fp80, align 16
  store x86_fp80 %0, ptr %2, align 16, !tbaa !226
  %3 = load x86_fp80, ptr %2, align 16, !tbaa !226
  %4 = fptrunc x86_fp80 %3 to float
  ret float %4
}

; Function Attrs: inlinehint mustprogress nounwind uwtable
define linkonce_odr noundef float @_ZSt4sqrtf(float noundef %0) #4 comdat {
  %2 = alloca float, align 4
  store float %0, ptr %2, align 4, !tbaa !26
  %3 = load float, ptr %2, align 4, !tbaa !26
  %4 = call float @sqrtf(float noundef %3) #16, !tbaa !4
  ret float %4
}

; Function Attrs: mustprogress nounwind uwtable
define linkonce_odr noundef float @_ZN3gmx6squareIfEET_S1_(float noundef %0) #5 comdat {
  %2 = alloca float, align 4
  store float %0, ptr %2, align 4, !tbaa !26
  %3 = load float, ptr %2, align 4, !tbaa !26
  %4 = load float, ptr %2, align 4, !tbaa !26
  %5 = fmul float %3, %4
  ret float %5
}

; Function Attrs: inlinehint mustprogress uwtable
define internal void @_ZL10clear_rvecPf(ptr noundef %0) #9 {
  %2 = alloca ptr, align 8
  store ptr %0, ptr %2, align 8, !tbaa !20
  %3 = call noundef float @_Zli5_reale(x86_fp80 noundef 0xK00000000000000000000)
  %4 = load ptr, ptr %2, align 8, !tbaa !20
  %5 = getelementptr inbounds float, ptr %4, i64 0
  store float %3, ptr %5, align 4, !tbaa !26
  %6 = call noundef float @_Zli5_reale(x86_fp80 noundef 0xK00000000000000000000)
  %7 = load ptr, ptr %2, align 8, !tbaa !20
  %8 = getelementptr inbounds float, ptr %7, i64 1
  store float %6, ptr %8, align 4, !tbaa !26
  %9 = call noundef float @_Zli5_reale(x86_fp80 noundef 0xK00000000000000000000)
  %10 = load ptr, ptr %2, align 8, !tbaa !20
  %11 = getelementptr inbounds float, ptr %10, i64 2
  store float %9, ptr %11, align 4, !tbaa !26
  ret void
}

; Function Attrs: mustprogress uwtable
define internal void @_ZL10norm_princPK7t_atomsiPiiPA3_f(ptr noundef %0, i32 noundef %1, ptr noundef %2, i32 noundef %3, ptr noundef %4) #0 {
  %6 = alloca ptr, align 8
  %7 = alloca i32, align 4
  %8 = alloca ptr, align 8
  %9 = alloca i32, align 4
  %10 = alloca ptr, align 8
  %11 = alloca i32, align 4
  %12 = alloca i32, align 4
  %13 = alloca [3 x float], align 4
  %14 = alloca [3 x float], align 4
  store ptr %0, ptr %6, align 8, !tbaa !155
  store i32 %1, ptr %7, align 4, !tbaa !4
  store ptr %2, ptr %8, align 8, !tbaa !22
  store i32 %3, ptr %9, align 4, !tbaa !4
  store ptr %4, ptr %10, align 8, !tbaa !20
  call void @llvm.lifetime.start.p0(i64 4, ptr %11) #16
  call void @llvm.lifetime.start.p0(i64 4, ptr %12) #16
  call void @llvm.lifetime.start.p0(i64 12, ptr %13) #16
  call void @llvm.lifetime.start.p0(i64 12, ptr %14) #16
  %15 = load ptr, ptr %6, align 8, !tbaa !155
  %16 = load i32, ptr %7, align 4, !tbaa !4
  %17 = load ptr, ptr %8, align 8, !tbaa !22
  %18 = load i32, ptr %9, align 4, !tbaa !4
  %19 = load ptr, ptr %10, align 8, !tbaa !20
  %20 = getelementptr inbounds [3 x float], ptr %13, i64 0, i64 0
  call void @_Z12orient_princPK7t_atomsiPKiiPA3_fS5_Pf(ptr noundef %15, i32 noundef %16, ptr noundef %17, i32 noundef %18, ptr noundef %19, ptr noundef null, ptr noundef %20)
  %21 = getelementptr inbounds [3 x float], ptr %14, i64 0, i64 0
  call void @_ZL10clear_rvecPf(ptr noundef %21)
  store i32 0, ptr %12, align 4, !tbaa !4
  br label %22

22:                                               ; preds = %76, %5
  %23 = load i32, ptr %12, align 4, !tbaa !4
  %24 = icmp slt i32 %23, 3
  br i1 %24, label %25, label %79

25:                                               ; preds = %22
  store i32 0, ptr %11, align 4, !tbaa !4
  br label %26

26:                                               ; preds = %49, %25
  %27 = load i32, ptr %11, align 4, !tbaa !4
  %28 = load i32, ptr %7, align 4, !tbaa !4
  %29 = icmp slt i32 %27, %28
  br i1 %29, label %30, label %52

30:                                               ; preds = %26
  %31 = load ptr, ptr %10, align 8, !tbaa !20
  %32 = load ptr, ptr %8, align 8, !tbaa !22
  %33 = load i32, ptr %11, align 4, !tbaa !4
  %34 = sext i32 %33 to i64
  %35 = getelementptr inbounds i32, ptr %32, i64 %34
  %36 = load i32, ptr %35, align 4, !tbaa !4
  %37 = sext i32 %36 to i64
  %38 = getelementptr inbounds [3 x float], ptr %31, i64 %37
  %39 = load i32, ptr %12, align 4, !tbaa !4
  %40 = sext i32 %39 to i64
  %41 = getelementptr inbounds [3 x float], ptr %38, i64 0, i64 %40
  %42 = load float, ptr %41, align 4, !tbaa !26
  %43 = call noundef float @_ZN3gmx6squareIfEET_S1_(float noundef %42)
  %44 = load i32, ptr %12, align 4, !tbaa !4
  %45 = sext i32 %44 to i64
  %46 = getelementptr inbounds [3 x float], ptr %14, i64 0, i64 %45
  %47 = load float, ptr %46, align 4, !tbaa !26
  %48 = fadd float %47, %43
  store float %48, ptr %46, align 4, !tbaa !26
  br label %49

49:                                               ; preds = %30
  %50 = load i32, ptr %11, align 4, !tbaa !4
  %51 = add nsw i32 %50, 1
  store i32 %51, ptr %11, align 4, !tbaa !4
  br label %26, !llvm.loop !157

52:                                               ; preds = %26
  %53 = load i32, ptr %12, align 4, !tbaa !4
  %54 = sext i32 %53 to i64
  %55 = getelementptr inbounds [3 x float], ptr %14, i64 0, i64 %54
  %56 = load float, ptr %55, align 4, !tbaa !26
  %57 = load i32, ptr %7, align 4, !tbaa !4
  %58 = sitofp i32 %57 to float
  %59 = fdiv float %56, %58
  %60 = call noundef float @_ZSt4sqrtf(float noundef %59)
  %61 = load i32, ptr %12, align 4, !tbaa !4
  %62 = sext i32 %61 to i64
  %63 = getelementptr inbounds [3 x float], ptr %14, i64 0, i64 %62
  store float %60, ptr %63, align 4, !tbaa !26
  %64 = call double @sqrt(double noundef 3.000000e+00) #16, !tbaa !4
  %65 = load i32, ptr %12, align 4, !tbaa !4
  %66 = sext i32 %65 to i64
  %67 = getelementptr inbounds [3 x float], ptr %14, i64 0, i64 %66
  %68 = load float, ptr %67, align 4, !tbaa !26
  %69 = fpext float %68 to double
  %70 = fmul double %64, %69
  %71 = fdiv double 1.000000e+00, %70
  %72 = fptrunc double %71 to float
  %73 = load i32, ptr %12, align 4, !tbaa !4
  %74 = sext i32 %73 to i64
  %75 = getelementptr inbounds [3 x float], ptr %14, i64 0, i64 %74
  store float %72, ptr %75, align 4, !tbaa !26
  br label %76

76:                                               ; preds = %52
  %77 = load i32, ptr %12, align 4, !tbaa !4
  %78 = add nsw i32 %77, 1
  store i32 %78, ptr %12, align 4, !tbaa !4
  br label %22, !llvm.loop !158

79:                                               ; preds = %22
  store i32 0, ptr %11, align 4, !tbaa !4
  br label %80

80:                                               ; preds = %106, %79
  %81 = load i32, ptr %11, align 4, !tbaa !4
  %82 = load i32, ptr %9, align 4, !tbaa !4
  %83 = icmp slt i32 %81, %82
  br i1 %83, label %84, label %109

84:                                               ; preds = %80
  store i32 0, ptr %12, align 4, !tbaa !4
  br label %85

85:                                               ; preds = %102, %84
  %86 = load i32, ptr %12, align 4, !tbaa !4
  %87 = icmp slt i32 %86, 3
  br i1 %87, label %88, label %105

88:                                               ; preds = %85
  %89 = load i32, ptr %12, align 4, !tbaa !4
  %90 = sext i32 %89 to i64
  %91 = getelementptr inbounds [3 x float], ptr %14, i64 0, i64 %90
  %92 = load float, ptr %91, align 4, !tbaa !26
  %93 = load ptr, ptr %10, align 8, !tbaa !20
  %94 = load i32, ptr %11, align 4, !tbaa !4
  %95 = sext i32 %94 to i64
  %96 = getelementptr inbounds [3 x float], ptr %93, i64 %95
  %97 = load i32, ptr %12, align 4, !tbaa !4
  %98 = sext i32 %97 to i64
  %99 = getelementptr inbounds [3 x float], ptr %96, i64 0, i64 %98
  %100 = load float, ptr %99, align 4, !tbaa !26
  %101 = fmul float %100, %92
  store float %101, ptr %99, align 4, !tbaa !26
  br label %102

102:                                              ; preds = %88
  %103 = load i32, ptr %12, align 4, !tbaa !4
  %104 = add nsw i32 %103, 1
  store i32 %104, ptr %12, align 4, !tbaa !4
  br label %85, !llvm.loop !159

105:                                              ; preds = %85
  br label %106

106:                                              ; preds = %105
  %107 = load i32, ptr %11, align 4, !tbaa !4
  %108 = add nsw i32 %107, 1
  store i32 %108, ptr %11, align 4, !tbaa !4
  br label %80, !llvm.loop !160

109:                                              ; preds = %80
  call void @llvm.lifetime.end.p0(i64 12, ptr %14) #16
  call void @llvm.lifetime.end.p0(i64 12, ptr %13) #16
  call void @llvm.lifetime.end.p0(i64 4, ptr %12) #16
  call void @llvm.lifetime.end.p0(i64 4, ptr %11) #16
  ret void
}