; Function Attrs: mustprogress uwtable
define internal fastcc void @_ZL10norm_princPK7t_atomsiPiiPA3_f(ptr noundef nonnull %0, i32 noundef %1, ptr noundef %2, i32 noundef %3, ptr noundef %4) unnamed_addr #0 {
  %6 = alloca [3 x float], align 4
  %7 = alloca [3 x float], align 4
  call void @llvm.lifetime.start.p0(i64 12, ptr nonnull %6) #20
  call void @llvm.lifetime.start.p0(i64 12, ptr nonnull %7) #20
  call void @_Z12orient_princPK7t_atomsiPKiiPA3_fS5_Pf(ptr noundef nonnull %0, i32 noundef %1, ptr noundef %2, i32 noundef %3, ptr noundef %4, ptr noundef null, ptr noundef nonnull %6)
  store float 0.000000e+00, ptr %7, align 4, !tbaa !31
  %8 = getelementptr inbounds nuw i8, ptr %7, i64 4
  store float 0.000000e+00, ptr %8, align 4, !tbaa !31
  %9 = getelementptr inbounds nuw i8, ptr %7, i64 8
  store float 0.000000e+00, ptr %9, align 4, !tbaa !31
  %10 = icmp sgt i32 %1, 0
  %11 = sitofp i32 %1 to float
  br i1 %10, label %.preheader32.us.preheader, label %.preheader32

.preheader32.us.preheader:                        ; preds = %5
  %wide.trip.count = zext nneg i32 %1 to i64
  br label %.preheader32.us

.preheader32.us:                                  ; preds = %.preheader32.us.preheader, %._crit_edge.us
  %indvars.iv43 = phi i64 [ 0, %.preheader32.us.preheader ], [ %indvars.iv.next44, %._crit_edge.us ]
  %12 = getelementptr inbounds nuw [3 x float], ptr %7, i64 0, i64 %indvars.iv43
  %.promoted.us = load float, ptr %12, align 4, !tbaa !31
  br label %13

13:                                               ; preds = %.preheader32.us, %13
  %indvars.iv39 = phi i64 [ 0, %.preheader32.us ], [ %indvars.iv.next40, %13 ]
  %14 = phi float [ %.promoted.us, %.preheader32.us ], [ %21, %13 ]
  %15 = getelementptr inbounds nuw i32, ptr %2, i64 %indvars.iv39
  %16 = load i32, ptr %15, align 4, !tbaa !4
  %17 = sext i32 %16 to i64
  %18 = getelementptr inbounds [3 x float], ptr %4, i64 %17, i64 %indvars.iv43
  %19 = load float, ptr %18, align 4, !tbaa !31
  %20 = fmul float %19, %19
  %21 = fadd float %14, %20
  %indvars.iv.next40 = add nuw nsw i64 %indvars.iv39, 1
  %exitcond42.not = icmp eq i64 %indvars.iv.next40, %wide.trip.count
  br i1 %exitcond42.not, label %._crit_edge.us, label %13, !llvm.loop !139

._crit_edge.us:                                   ; preds = %13
  %22 = fdiv float %21, %11
  %23 = call noundef float @sqrtf(float noundef %22) #20, !tbaa !4
  %24 = fpext float %23 to double
  %25 = fmul double %24, 0x3FFBB67AE8584CAA
  %26 = fdiv double 1.000000e+00, %25
  %27 = fptrunc double %26 to float
  store float %27, ptr %12, align 4, !tbaa !31
  %indvars.iv.next44 = add nuw nsw i64 %indvars.iv43, 1
  %exitcond46.not = icmp eq i64 %indvars.iv.next44, 3
  br i1 %exitcond46.not, label %.preheader31, label %.preheader32.us, !llvm.loop !140

.preheader32:                                     ; preds = %5, %.preheader32
  %indvars.iv = phi i64 [ %indvars.iv.next, %.preheader32 ], [ 0, %5 ]
  %28 = getelementptr inbounds nuw [3 x float], ptr %7, i64 0, i64 %indvars.iv
  %29 = load float, ptr %28, align 4, !tbaa !31
  %30 = fdiv float %29, %11
  %31 = call noundef float @sqrtf(float noundef %30) #20, !tbaa !4
  %32 = fpext float %31 to double
  %33 = fmul double %32, 0x3FFBB67AE8584CAA
  %34 = fdiv double 1.000000e+00, %33
  %35 = fptrunc double %34 to float
  store float %35, ptr %28, align 4, !tbaa !31
  %indvars.iv.next = add nuw nsw i64 %indvars.iv, 1
  %exitcond.not = icmp eq i64 %indvars.iv.next, 3
  br i1 %exitcond.not, label %.preheader31, label %.preheader32, !llvm.loop !140

.preheader31:                                     ; preds = %.preheader32, %._crit_edge.us
  %36 = icmp sgt i32 %3, 0
  br i1 %36, label %.preheader.preheader, label %._crit_edge

.preheader.preheader:                             ; preds = %.preheader31
  %wide.trip.count54 = zext nneg i32 %3 to i64
  br label %.preheader

.preheader:                                       ; preds = %.preheader.preheader, %43
  %indvars.iv51 = phi i64 [ 0, %.preheader.preheader ], [ %indvars.iv.next52, %43 ]
  br label %37

37:                                               ; preds = %.preheader, %37
  %indvars.iv47 = phi i64 [ 0, %.preheader ], [ %indvars.iv.next48, %37 ]
  %38 = getelementptr inbounds nuw [3 x float], ptr %7, i64 0, i64 %indvars.iv47
  %39 = load float, ptr %38, align 4, !tbaa !31
  %40 = getelementptr inbounds nuw [3 x float], ptr %4, i64 %indvars.iv51, i64 %indvars.iv47
  %41 = load float, ptr %40, align 4, !tbaa !31
  %42 = fmul float %39, %41
  store float %42, ptr %40, align 4, !tbaa !31
  %indvars.iv.next48 = add nuw nsw i64 %indvars.iv47, 1
  %exitcond50.not = icmp eq i64 %indvars.iv.next48, 3
  br i1 %exitcond50.not, label %43, label %37, !llvm.loop !141

43:                                               ; preds = %37
  %indvars.iv.next52 = add nuw nsw i64 %indvars.iv51, 1
  %exitcond55.not = icmp eq i64 %indvars.iv.next52, %wide.trip.count54
  br i1 %exitcond55.not, label %._crit_edge, label %.preheader, !llvm.loop !142

._crit_edge:                                      ; preds = %43, %.preheader31
  call void @llvm.lifetime.end.p0(i64 12, ptr nonnull %7) #20
  call void @llvm.lifetime.end.p0(i64 12, ptr nonnull %6) #20
  ret void
}